target datalayout = "e-m:e-p270:32:32-p271:32:32-p272:64:64-i64:64-i128:128-f80:128-n8:16:32:64-S128"
target triple = "x86_64-pc-linux-gnu"

%"struct.Luau::AstNameTable::Entry" = type { %"struct.Luau::AstName", i32, i32 }
%"struct.Luau::AstName" = type { ptr }
%"class.Luau::AstNameTable" = type { %"class.Luau::DenseHashSet", ptr }
%"class.Luau::DenseHashSet" = type { %"class.Luau::detail::DenseHashTable" }
%"class.Luau::detail::DenseHashTable" = type <{ ptr, i64, i64, %"struct.Luau::AstNameTable::Entry", [8 x i8] }>

@.str.101 = private unnamed_addr constant [1 x i8] zeroinitializer, align 1

; Function Attrs: mustprogress nounwind uwtable
define linkonce_odr dso_local void @_ZN4Luau6detail16ItemInterfaceSetINS_12AstNameTable5EntryEE7destroyEPS3_m(ptr noundef %0, i64 noundef %1) #2 comdat align 2 {
  %3 = alloca ptr, align 8
  %4 = alloca i64, align 8
  %5 = alloca i64, align 8
  store ptr %0, ptr %3, align 8, !tbaa !41
  store i64 %1, ptr %4, align 8, !tbaa !35
  call void @llvm.lifetime.start.p0(i64 8, ptr %5) #18
  store i64 0, ptr %5, align 8, !tbaa !35
  br label %6

6:                                                ; preds = %12, %2
  %7 = load i64, ptr %5, align 8, !tbaa !35
  %8 = load i64, ptr %4, align 8, !tbaa !35
  %9 = icmp ult i64 %7, %8
  br i1 %9, label %11, label %10

10:                                               ; preds = %6
  call void @llvm.lifetime.end.p0(i64 8, ptr %5) #18
  br label %15

11:                                               ; preds = %6
  br label %12

12:                                               ; preds = %11
  %13 = load i64, ptr %5, align 8, !tbaa !35
  %14 = add i64 %13, 1
  store i64 %14, ptr %5, align 8, !tbaa !35
  br label %6, !llvm.loop !130

15:                                               ; preds = %10
  ret void
}

; Function Attrs: noinline noreturn nounwind uwtable
define linkonce_odr hidden void @__clang_call_terminate(ptr noundef %0) #12 comdat {
  %2 = call ptr @__cxa_begin_catch(ptr %0) #18
  call void @_ZSt9terminatev() #21
  unreachable
}

; Function Attrs: mustprogress uwtable
define linkonce_odr dso_local void @_ZN4Luau6detail14DenseHashTableINS_12AstNameTable5EntryES3_S3_NS0_16ItemInterfaceSetIS3_EENS2_9EntryHashESt8equal_toIS3_EE7destroyEv(ptr noundef nonnull align 8 dereferenceable(42) %0) #4 comdat align 2 {
  %2 = alloca ptr, align 8
  store ptr %0, ptr %2, align 8, !tbaa !126
  %3 = load ptr, ptr %2, align 8
  %4 = getelementptr inbounds nuw %"class.Luau::detail::DenseHashTable", ptr %3, i32 0, i32 0
  %5 = load ptr, ptr %4, align 8, !tbaa !128
  %6 = getelementptr inbounds nuw %"class.Luau::detail::DenseHashTable", ptr %3, i32 0, i32 1
  %7 = load i64, ptr %6, align 8, !tbaa !129
  call void @_ZN4Luau6detail16ItemInterfaceSetINS_12AstNameTable5EntryEE7destroyEPS3_m(ptr noundef %5, i64 noundef %7)
  %8 = getelementptr inbounds nuw %"class.Luau::detail::DenseHashTable", ptr %3, i32 0, i32 0
  %9 = load ptr, ptr %8, align 8, !tbaa !128
  call void @_ZdlPv(ptr noundef %9) #18
  %10 = getelementptr inbounds nuw %"class.Luau::detail::DenseHashTable", ptr %3, i32 0, i32 0
  store ptr null, ptr %10, align 8, !tbaa !128
  %11 = getelementptr inbounds nuw %"class.Luau::detail::DenseHashTable", ptr %3, i32 0, i32 1
  store i64 0, ptr %11, align 8, !tbaa !129
  ret void
}

; Function Attrs: mustprogress nounwind uwtable
define linkonce_odr dso_local void @_ZN4Luau6detail16ItemInterfaceSetINS_12AstNameTable5EntryEE4fillEPS3_mRKS3_(ptr noundef %0, i64 noundef %1, ptr noundef nonnull align 8 dereferenceable(16) %2) #2 comdat align 2 {
  %4 = alloca ptr, align 8
  %5 = alloca i64, align 8
  %6 = alloca ptr, align 8
  %7 = alloca i64, align 8
  store ptr %0, ptr %4, align 8, !tbaa !41
  store i64 %1, ptr %5, align 8, !tbaa !35
  store ptr %2, ptr %6, align 8, !tbaa !41
  call void @llvm.lifetime.start.p0(i64 8, ptr %7) #18
  store i64 0, ptr %7, align 8, !tbaa !35
  br label %8

8:                                                ; preds = %18, %3
  %9 = load i64, ptr %7, align 8, !tbaa !35
  %10 = load i64, ptr %5, align 8, !tbaa !35
  %11 = icmp ult i64 %9, %10
  br i1 %11, label %13, label %12

12:                                               ; preds = %8
  call void @llvm.lifetime.end.p0(i64 8, ptr %7) #18
  br label %21

13:                                               ; preds = %8
  %14 = load ptr, ptr %4, align 8, !tbaa !41
  %15 = load i64, ptr %7, align 8, !tbaa !35
  %16 = getelementptr inbounds nuw %"struct.Luau::AstNameTable::Entry", ptr %14, i64 %15
  %17 = load ptr, ptr %6, align 8, !tbaa !41
  call void @llvm.memcpy.p0.p0.i64(ptr align 8 %16, ptr align 8 %17, i64 16, i1 false), !tbaa.struct !157
  br label %18

18:                                               ; preds = %13
  %19 = load i64, ptr %7, align 8, !tbaa !35
  %20 = add i64 %19, 1
  store i64 %20, ptr %7, align 8, !tbaa !35
  br label %8, !llvm.loop !158

21:                                               ; preds = %12
  ret void
}

; Function Attrs: mustprogress nounwind uwtable
define linkonce_odr dso_local void @_ZN4Luau6detail14DenseHashTableINS_12AstNameTable5EntryES3_S3_NS0_16ItemInterfaceSetIS3_EENS2_9EntryHashESt8equal_toIS3_EED2Ev(ptr noundef nonnull align 8 dereferenceable(42) %0) unnamed_addr #2 comdat align 2 personality ptr @__gxx_personality_v0 {
  %2 = alloca ptr, align 8
  store ptr %0, ptr %2, align 8, !tbaa !126
  %3 = load ptr, ptr %2, align 8
  %4 = getelementptr inbounds nuw %"class.Luau::detail::DenseHashTable", ptr %3, i32 0, i32 0
  %5 = load ptr, ptr %4, align 8, !tbaa !128
  %6 = icmp ne ptr %5, null
  br i1 %6, label %7, label %9

7:                                                ; preds = %1
  invoke void @_ZN4Luau6detail14DenseHashTableINS_12AstNameTable5EntryES3_S3_NS0_16ItemInterfaceSetIS3_EENS2_9EntryHashESt8equal_toIS3_EE7destroyEv(ptr noundef nonnull align 8 dereferenceable(42) %3)
          to label %8 unwind label %10

8:                                                ; preds = %7
  br label %9

9:                                                ; preds = %8, %1
  ret void

10:                                               ; preds = %7
  %11 = landingpad { ptr, i32 }
          catch ptr null
  %12 = extractvalue { ptr, i32 } %11, 0
  call void @__clang_call_terminate(ptr %12) #21
  unreachable
}

; Function Attrs: mustprogress uwtable
define linkonce_odr dso_local void @_ZN4Luau6detail14DenseHashTableINS_12AstNameTable5EntryES3_S3_NS0_16ItemInterfaceSetIS3_EENS2_9EntryHashESt8equal_toIS3_EEC2ERKS3_m(ptr noundef nonnull align 8 dereferenceable(42) %0, ptr noundef nonnull align 8 dereferenceable(16) %1, i64 noundef %2) unnamed_addr #4 comdat align 2 {
  %4 = alloca ptr, align 8
  %5 = alloca ptr, align 8
  %6 = alloca i64, align 8
  store ptr %0, ptr %4, align 8, !tbaa !126
  store ptr %1, ptr %5, align 8, !tbaa !41
  store i64 %2, ptr %6, align 8, !tbaa !35
  %7 = load ptr, ptr %4, align 8
  %8 = getelementptr inbounds nuw %"class.Luau::detail::DenseHashTable", ptr %7, i32 0, i32 0
  store ptr null, ptr %8, align 8, !tbaa !128
  %9 = getelementptr inbounds nuw %"class.Luau::detail::DenseHashTable", ptr %7, i32 0, i32 1
  store i64 0, ptr %9, align 8, !tbaa !129
  %10 = getelementptr inbounds nuw %"class.Luau::detail::DenseHashTable", ptr %7, i32 0, i32 2
  store i64 0, ptr %10, align 8, !tbaa !156
  %11 = getelementptr inbounds nuw %"class.Luau::detail::DenseHashTable", ptr %7, i32 0, i32 3
  %12 = load ptr, ptr %5, align 8, !tbaa !41
  call void @llvm.memcpy.p0.p0.i64(ptr align 8 %11, ptr align 8 %12, i64 16, i1 false), !tbaa.struct !157
  %13 = load i64, ptr %6, align 8, !tbaa !35
  %14 = icmp ne i64 %13, 0
  br i1 %14, label %15, label %26

15:                                               ; preds = %3
  %16 = load i64, ptr %6, align 8, !tbaa !35
  %17 = mul i64 16, %16
  %18 = call noalias noundef nonnull ptr @_Znwm(i64 noundef %17) #23
  %19 = getelementptr inbounds nuw %"class.Luau::detail::DenseHashTable", ptr %7, i32 0, i32 0
  store ptr %18, ptr %19, align 8, !tbaa !128
  %20 = load i64, ptr %6, align 8, !tbaa !35
  %21 = getelementptr inbounds nuw %"class.Luau::detail::DenseHashTable", ptr %7, i32 0, i32 1
  store i64 %20, ptr %21, align 8, !tbaa !129
  %22 = getelementptr inbounds nuw %"class.Luau::detail::DenseHashTable", ptr %7, i32 0, i32 0
  %23 = load ptr, ptr %22, align 8, !tbaa !128
  %24 = load i64, ptr %6, align 8, !tbaa !35
  %25 = load ptr, ptr %5, align 8, !tbaa !41
  call void @_ZN4Luau6detail16ItemInterfaceSetINS_12AstNameTable5EntryEE4fillEPS3_mRKS3_(ptr noundef %23, i64 noundef %24, ptr noundef nonnull align 8 dereferenceable(16) %25)
  br label %26

26:                                               ; preds = %15, %3
  ret void
}

; Function Attrs: inlinehint mustprogress nounwind uwtable
define linkonce_odr dso_local void @_ZN4Luau12DenseHashSetINS_12AstNameTable5EntryENS1_9EntryHashESt8equal_toIS2_EED2Ev(ptr noundef nonnull align 8 dereferenceable(48) %0) unnamed_addr #7 comdat align 2 {
  %2 = alloca ptr, align 8
  store ptr %0, ptr %2, align 8, !tbaa !60
  %3 = load ptr, ptr %2, align 8
  %4 = getelementptr inbounds nuw %"class.Luau::DenseHashSet", ptr %3, i32 0, i32 0
  call void @_ZN4Luau6detail14DenseHashTableINS_12AstNameTable5EntryES3_S3_NS0_16ItemInterfaceSetIS3_EENS2_9EntryHashESt8equal_toIS3_EED2Ev(ptr noundef nonnull align 8 dereferenceable(42) %4) #18
  ret void
}

; Function Attrs: mustprogress uwtable
define dso_local ptr @_ZN4Luau12AstNameTable9addStaticEPKcNS_6Lexeme4TypeE(ptr noundef nonnull align 8 dereferenceable(56) %0, ptr noundef %1, i32 noundef %2) #4 align 2 {
  %4 = alloca %"struct.Luau::AstName", align 8
  %5 = alloca ptr, align 8
  %6 = alloca ptr, align 8
  %7 = alloca i32, align 4
  %8 = alloca %"struct.Luau::AstNameTable::Entry", align 8
  store ptr %0, ptr %5, align 8, !tbaa !51
  store ptr %1, ptr %6, align 8, !tbaa !11
  store i32 %2, ptr %7, align 4, !tbaa !26
  %9 = load ptr, ptr %5, align 8
  call void @llvm.lifetime.start.p0(i64 16, ptr %8) #18
  %10 = getelementptr inbounds nuw %"struct.Luau::AstNameTable::Entry", ptr %8, i32 0, i32 0
  %11 = load ptr, ptr %6, align 8, !tbaa !11
  call void @_ZN4Luau7AstNameC2EPKc(ptr noundef nonnull align 8 dereferenceable(8) %10, ptr noundef %11)
  %12 = getelementptr inbounds nuw %"struct.Luau::AstNameTable::Entry", ptr %8, i32 0, i32 1
  %13 = load ptr, ptr %6, align 8, !tbaa !11
  %14 = call i64 @strlen(ptr noundef %13) #20
  %15 = trunc i64 %14 to i32
  store i32 %15, ptr %12, align 8, !tbaa !43
  %16 = getelementptr inbounds nuw %"struct.Luau::AstNameTable::Entry", ptr %8, i32 0, i32 2
  %17 = load i32, ptr %7, align 4, !tbaa !26
  store i32 %17, ptr %16, align 4, !tbaa !55
  %18 = getelementptr inbounds nuw %"class.Luau::AstNameTable", ptr %9, i32 0, i32 0
  %19 = call noundef nonnull align 8 dereferenceable(16) ptr @_ZN4Luau12DenseHashSetINS_12AstNameTable5EntryENS1_9EntryHashESt8equal_toIS2_EE6insertERKS2_(ptr noundef nonnull align 8 dereferenceable(48) %18, ptr noundef nonnull align 8 dereferenceable(16) %8)
  %20 = getelementptr inbounds nuw %"struct.Luau::AstNameTable::Entry", ptr %8, i32 0, i32 0
  call void @llvm.memcpy.p0.p0.i64(ptr align 8 %4, ptr align 8 %20, i64 8, i1 false), !tbaa.struct !62
  call void @llvm.lifetime.end.p0(i64 16, ptr %8) #18
  %21 = getelementptr inbounds nuw %"struct.Luau::AstName", ptr %4, i32 0, i32 0
  %22 = load ptr, ptr %21, align 8
  ret ptr %22
}

; Function Attrs: mustprogress uwtable
define linkonce_odr dso_local void @_ZN4Luau12DenseHashSetINS_12AstNameTable5EntryENS1_9EntryHashESt8equal_toIS2_EEC2ERKS2_m(ptr noundef nonnull align 8 dereferenceable(48) %0, ptr noundef nonnull align 8 dereferenceable(16) %1, i64 noundef %2) unnamed_addr #4 comdat align 2 {
  %4 = alloca ptr, align 8
  %5 = alloca ptr, align 8
  %6 = alloca i64, align 8
  store ptr %0, ptr %4, align 8, !tbaa !60
  store ptr %1, ptr %5, align 8, !tbaa !41
  store i64 %2, ptr %6, align 8, !tbaa !35
  %7 = load ptr, ptr %4, align 8
  %8 = getelementptr inbounds nuw %"class.Luau::DenseHashSet", ptr %7, i32 0, i32 0
  %9 = load ptr, ptr %5, align 8, !tbaa !41
  %10 = load i64, ptr %6, align 8, !tbaa !35
  call void @_ZN4Luau6detail14DenseHashTableINS_12AstNameTable5EntryES3_S3_NS0_16ItemInterfaceSetIS3_EENS2_9EntryHashESt8equal_toIS3_EEC2ERKS3_m(ptr noundef nonnull align 8 dereferenceable(42) %8, ptr noundef nonnull align 8 dereferenceable(16) %9, i64 noundef %10)
  ret void
}

; Function Attrs: mustprogress nounwind uwtable
define linkonce_odr dso_local void @_ZN4Luau7AstNameC2EPKc(ptr noundef nonnull align 8 dereferenceable(8) %0, ptr noundef %1) unnamed_addr #2 comdat align 2 {
  %3 = alloca ptr, align 8
  %4 = alloca ptr, align 8
  store ptr %0, ptr %3, align 8, !tbaa !57
  store ptr %1, ptr %4, align 8, !tbaa !11
  %5 = load ptr, ptr %3, align 8
  %6 = getelementptr inbounds nuw %"struct.Luau::AstName", ptr %5, i32 0, i32 0
  %7 = load ptr, ptr %4, align 8, !tbaa !11
  store ptr %7, ptr %6, align 8, !tbaa !59
  ret void
}

; Function Attrs: mustprogress uwtable
define dso_local void @_ZN4Luau12AstNameTableC2ERNS_9AllocatorE(ptr noundef nonnull align 8 dereferenceable(56) %0, ptr noundef nonnull align 8 dereferenceable(16) %1) unnamed_addr #4 align 2 personality ptr @__gxx_personality_v0 {
  %3 = alloca ptr, align 8
  %4 = alloca ptr, align 8
  %5 = alloca %"struct.Luau::AstNameTable::Entry", align 8
  %6 = alloca i32, align 4
  %7 = alloca ptr, align 8
  %8 = alloca i32, align 4
  %9 = alloca %"struct.Luau::AstName", align 8
  store ptr %0, ptr %3, align 8, !tbaa !51
  store ptr %1, ptr %4, align 8, !tbaa !53
  %10 = load ptr, ptr %3, align 8
  %11 = getelementptr inbounds nuw %"class.Luau::AstNameTable", ptr %10, i32 0, i32 0
  call void @llvm.lifetime.start.p0(i64 16, ptr %5) #18
  %12 = getelementptr inbounds nuw %"struct.Luau::AstNameTable::Entry", ptr %5, i32 0, i32 0
  call void @_ZN4Luau7AstNameC2EPKc(ptr noundef nonnull align 8 dereferenceable(8) %12, ptr noundef @.str.101)
  %13 = getelementptr inbounds nuw %"struct.Luau::AstNameTable::Entry", ptr %5, i32 0, i32 1
  store i32 0, ptr %13, align 8, !tbaa !43
  %14 = getelementptr inbounds nuw %"struct.Luau::AstNameTable::Entry", ptr %5, i32 0, i32 2
  store i32 0, ptr %14, align 4, !tbaa !55
  call void @_ZN4Luau12DenseHashSetINS_12AstNameTable5EntryENS1_9EntryHashESt8equal_toIS2_EEC2ERKS2_m(ptr noundef nonnull align 8 dereferenceable(48) %11, ptr noundef nonnull align 8 dereferenceable(16) %5, i64 noundef 128)
  call void @llvm.lifetime.end.p0(i64 16, ptr %5) #18
  %15 = getelementptr inbounds nuw %"class.Luau::AstNameTable", ptr %10, i32 0, i32 1
  %16 = load ptr, ptr %4, align 8, !tbaa !53
  store ptr %16, ptr %15, align 8, !tbaa !53
  call void @llvm.lifetime.start.p0(i64 4, ptr %6) #18
  store i32 290, ptr %6, align 4, !tbaa !4
  br label %17

17:                                               ; preds = %31, %2
  %18 = load i32, ptr %6, align 4, !tbaa !4
  %19 = icmp slt i32 %18, 311
  br i1 %19, label %21, label %20

20:                                               ; preds = %17
  call void @llvm.lifetime.end.p0(i64 4, ptr %6) #18
  br label %38

21:                                               ; preds = %17
  %22 = load i32, ptr %6, align 4, !tbaa !4
  %23 = sub nsw i32 %22, 290
  %24 = sext i32 %23 to i64
  %25 = getelementptr inbounds [21 x ptr], ptr @_ZN4LuauL9kReservedE, i64 0, i64 %24
  %26 = load ptr, ptr %25, align 8, !tbaa !11
  %27 = load i32, ptr %6, align 4, !tbaa !4
  %28 = invoke ptr @_ZN4Luau12AstNameTable9addStaticEPKcNS_6Lexeme4TypeE(ptr noundef nonnull align 8 dereferenceable(56) %10, ptr noundef %26, i32 noundef %27)
          to label %29 unwind label %34

29:                                               ; preds = %21
  %30 = getelementptr inbounds nuw %"struct.Luau::AstName", ptr %9, i32 0, i32 0
  store ptr %28, ptr %30, align 8
  br label %31

31:                                               ; preds = %29
  %32 = load i32, ptr %6, align 4, !tbaa !4
  %33 = add nsw i32 %32, 1
  store i32 %33, ptr %6, align 4, !tbaa !4
  br label %17, !llvm.loop !56

34:                                               ; preds = %21
  %35 = landingpad { ptr, i32 }
          cleanup
  %36 = extractvalue { ptr, i32 } %35, 0
  store ptr %36, ptr %7, align 8
  %37 = extractvalue { ptr, i32 } %35, 1
  store i32 %37, ptr %8, align 4
  call void @llvm.lifetime.end.p0(i64 4, ptr %6) #18
  call void @_ZN4Luau12DenseHashSetINS_12AstNameTable5EntryENS1_9EntryHashESt8equal_toIS2_EED2Ev(ptr noundef nonnull align 8 dereferenceable(48) %11) #18
  br label %39

38:                                               ; preds = %20
  ret void

39:                                               ; preds = %34
  %40 = load ptr, ptr %7, align 8
  %41 = load i32, ptr %8, align 4
  %42 = insertvalue { ptr, i32 } poison, ptr %40, 0
  %43 = insertvalue { ptr, i32 } %42, i32 %41, 1
  resume { ptr, i32 } %43
}