; Function Attrs: mustprogress uwtable
define dso_local void @_ZN4Luau12AstNameTableC2ERNS_9AllocatorE(ptr noundef nonnull align 8 dereferenceable(56) initializes((0, 40)) %0, ptr noundef nonnull align 8 dereferenceable(16) %1) unnamed_addr #5 align 2 personality ptr @__gxx_personality_v0 {
  %3 = alloca %"struct.Luau::AstNameTable::Entry", align 8
  %4 = getelementptr inbounds nuw i8, ptr %0, i64 24
  tail call void @llvm.memset.p0.i64(ptr noundef nonnull align 8 dereferenceable(48) %0, i8 0, i64 24, i1 false)
  store ptr @.str.101, ptr %4, align 8, !tbaa !25
  %.sroa.5.0..sroa_idx = getelementptr inbounds nuw i8, ptr %0, i64 32
  store i32 0, ptr %.sroa.5.0..sroa_idx, align 8, !tbaa !4
  %.sroa.6.0..sroa_idx = getelementptr inbounds nuw i8, ptr %0, i64 36
  store i32 0, ptr %.sroa.6.0..sroa_idx, align 4, !tbaa !32
  %5 = getelementptr inbounds nuw i8, ptr %0, i64 8
  %6 = tail call noalias noundef nonnull dereferenceable(2048) ptr @_Znwm(i64 noundef 2048) #26
  store ptr %6, ptr %0, align 8, !tbaa !33
  store i64 128, ptr %5, align 8, !tbaa !38
  br label %.lr.ph.i.i.i

.lr.ph.i.i.i:                                     ; preds = %.lr.ph.i.i.i, %2
  %.05.i.i.i = phi i64 [ %8, %.lr.ph.i.i.i ], [ 0, %2 ]
  %7 = getelementptr inbounds nuw %"struct.Luau::AstNameTable::Entry", ptr %6, i64 %.05.i.i.i
  store ptr @.str.101, ptr %7, align 8, !tbaa !25
  %.sroa.5.0..sroa_idx8 = getelementptr inbounds nuw i8, ptr %7, i64 8
  store i32 0, ptr %.sroa.5.0..sroa_idx8, align 8, !tbaa !4
  %.sroa.6.0..sroa_idx10 = getelementptr inbounds nuw i8, ptr %7, i64 12
  store i32 0, ptr %.sroa.6.0..sroa_idx10, align 4, !tbaa !32
  %8 = add nuw nsw i64 %.05.i.i.i, 1
  %exitcond.not.i.i.i = icmp eq i64 %8, 128
  br i1 %exitcond.not.i.i.i, label %_ZN4Luau12DenseHashSetINS_12AstNameTable5EntryENS1_9EntryHashESt8equal_toIS2_EEC2ERKS2_m.exit, label %.lr.ph.i.i.i, !llvm.loop !39

_ZN4Luau12DenseHashSetINS_12AstNameTable5EntryENS1_9EntryHashESt8equal_toIS2_EEC2ERKS2_m.exit: ; preds = %.lr.ph.i.i.i
  %9 = getelementptr inbounds nuw i8, ptr %0, i64 48
  store ptr %1, ptr %9, align 8, !tbaa !40
  %10 = getelementptr inbounds nuw i8, ptr %3, i64 8
  %11 = getelementptr inbounds nuw i8, ptr %3, i64 12
  br label %13

12:                                               ; preds = %21
  ret void

13:                                               ; preds = %_ZN4Luau12DenseHashSetINS_12AstNameTable5EntryENS1_9EntryHashESt8equal_toIS2_EEC2ERKS2_m.exit, %21
  %indvars.iv = phi i64 [ 290, %_ZN4Luau12DenseHashSetINS_12AstNameTable5EntryENS1_9EntryHashESt8equal_toIS2_EEC2ERKS2_m.exit ], [ %indvars.iv.next, %21 ]
  %14 = add nsw i64 %indvars.iv, -290
  %15 = getelementptr inbounds [21 x ptr], ptr @_ZN4LuauL9kReservedE, i64 0, i64 %14
  %16 = load ptr, ptr %15, align 8, !tbaa !25
  call void @llvm.lifetime.start.p0(i64 16, ptr nonnull %3) #24
  store ptr %16, ptr %3, align 8, !tbaa !42
  %17 = call i64 @strlen(ptr noundef nonnull dereferenceable(1) %16) #27
  %18 = trunc i64 %17 to i32
  store i32 %18, ptr %10, align 8, !tbaa !26
  %19 = trunc nuw nsw i64 %indvars.iv to i32
  store i32 %19, ptr %11, align 4, !tbaa !43
  %20 = invoke noundef nonnull align 8 dereferenceable(16) ptr @_ZN4Luau12DenseHashSetINS_12AstNameTable5EntryENS1_9EntryHashESt8equal_toIS2_EE6insertERKS2_(ptr noundef nonnull align 8 dereferenceable(56) %0, ptr noundef nonnull align 8 dereferenceable(16) %3)
          to label %21 unwind label %22

21:                                               ; preds = %13
  call void @llvm.lifetime.end.p0(i64 16, ptr nonnull %3) #24
  %indvars.iv.next = add nuw nsw i64 %indvars.iv, 1
  %exitcond.not = icmp eq i64 %indvars.iv.next, 311
  br i1 %exitcond.not, label %12, label %13, !llvm.loop !44

22:                                               ; preds = %13
  %23 = landingpad { ptr, i32 }
          cleanup
  %24 = load ptr, ptr %0, align 8, !tbaa !33
  %.not.i.i = icmp eq ptr %24, null
  br i1 %.not.i.i, label %_ZN4Luau12DenseHashSetINS_12AstNameTable5EntryENS1_9EntryHashESt8equal_toIS2_EED2Ev.exit, label %25

25:                                               ; preds = %22
  call void @_ZdlPv(ptr noundef nonnull %24) #24
  call void @llvm.memset.p0.i64(ptr noundef nonnull align 8 dereferenceable(48) %0, i8 0, i64 16, i1 false)
  br label %_ZN4Luau12DenseHashSetINS_12AstNameTable5EntryENS1_9EntryHashESt8equal_toIS2_EED2Ev.exit

_ZN4Luau12DenseHashSetINS_12AstNameTable5EntryENS1_9EntryHashESt8equal_toIS2_EED2Ev.exit: ; preds = %22, %25
  resume { ptr, i32 } %23
}